target datalayout = "e-m:e-p270:32:32-p271:32:32-p272:64:64-i64:64-i128:128-f80:128-n8:16:32:64-S128"
target triple = "x86_64-pc-linux-gnu"

%"class.cv::Size_" = type { i32, i32 }
%"class.testing::internal::linked_ptr_internal" = type { ptr }
%"class.testing::internal::ValueArray3.189" = type { %"class.cv::Size_", %"class.cv::Size_", %"class.cv::Size_" }
%"class.testing::internal::ValueArray10" = type { i32, i32, i32, i32, i32, i32, i32, i32, i32, i32 }
%"class.testing::internal::ParamGenerator.92" = type { %"class.testing::internal::linked_ptr.93" }
%"class.testing::internal::linked_ptr.93" = type { ptr, %"class.testing::internal::linked_ptr_internal" }
%"class.testing::internal::CartesianProductHolder3.258" = type { %"class.testing::internal::ValueArray3.189", %"class.testing::internal::ValueArray3.259", %"class.testing::internal::ValueArray10" }
%"class.testing::internal::ValueArray3.259" = type { i32, i32, i32 }

@_ZN4perfL5szVGAE = internal global %"class.cv::Size_" zeroinitializer, align 4
@_ZN4perfL6sz720pE = internal global %"class.cv::Size_" zeroinitializer, align 4
@_ZN4perfL7sz1080pE = internal global %"class.cv::Size_" zeroinitializer, align 4

; Function Attrs: mustprogress nounwind uwtable
define linkonce_odr hidden void @_ZN7testing8internal12ValueArray10IiiiiiiiiiiEC2ERKS2_(ptr noundef nonnull align 4 dereferenceable(40) %0, ptr noundef nonnull align 4 dereferenceable(40) %1) unnamed_addr #4 comdat align 2 {
  %3 = alloca ptr, align 8
  %4 = alloca ptr, align 8
  store ptr %0, ptr %3, align 8
  store ptr %1, ptr %4, align 8
  %5 = load ptr, ptr %3, align 8
  %6 = getelementptr inbounds %"class.testing::internal::ValueArray10", ptr %5, i32 0, i32 0
  %7 = load ptr, ptr %4, align 8
  %8 = getelementptr inbounds %"class.testing::internal::ValueArray10", ptr %7, i32 0, i32 0
  %9 = load i32, ptr %8, align 4
  store i32 %9, ptr %6, align 4
  %10 = getelementptr inbounds %"class.testing::internal::ValueArray10", ptr %5, i32 0, i32 1
  %11 = load ptr, ptr %4, align 8
  %12 = getelementptr inbounds %"class.testing::internal::ValueArray10", ptr %11, i32 0, i32 1
  %13 = load i32, ptr %12, align 4
  store i32 %13, ptr %10, align 4
  %14 = getelementptr inbounds %"class.testing::internal::ValueArray10", ptr %5, i32 0, i32 2
  %15 = load ptr, ptr %4, align 8
  %16 = getelementptr inbounds %"class.testing::internal::ValueArray10", ptr %15, i32 0, i32 2
  %17 = load i32, ptr %16, align 4
  store i32 %17, ptr %14, align 4
  %18 = getelementptr inbounds %"class.testing::internal::ValueArray10", ptr %5, i32 0, i32 3
  %19 = load ptr, ptr %4, align 8
  %20 = getelementptr inbounds %"class.testing::internal::ValueArray10", ptr %19, i32 0, i32 3
  %21 = load i32, ptr %20, align 4
  store i32 %21, ptr %18, align 4
  %22 = getelementptr inbounds %"class.testing::internal::ValueArray10", ptr %5, i32 0, i32 4
  %23 = load ptr, ptr %4, align 8
  %24 = getelementptr inbounds %"class.testing::internal::ValueArray10", ptr %23, i32 0, i32 4
  %25 = load i32, ptr %24, align 4
  store i32 %25, ptr %22, align 4
  %26 = getelementptr inbounds %"class.testing::internal::ValueArray10", ptr %5, i32 0, i32 5
  %27 = load ptr, ptr %4, align 8
  %28 = getelementptr inbounds %"class.testing::internal::ValueArray10", ptr %27, i32 0, i32 5
  %29 = load i32, ptr %28, align 4
  store i32 %29, ptr %26, align 4
  %30 = getelementptr inbounds %"class.testing::internal::ValueArray10", ptr %5, i32 0, i32 6
  %31 = load ptr, ptr %4, align 8
  %32 = getelementptr inbounds %"class.testing::internal::ValueArray10", ptr %31, i32 0, i32 6
  %33 = load i32, ptr %32, align 4
  store i32 %33, ptr %30, align 4
  %34 = getelementptr inbounds %"class.testing::internal::ValueArray10", ptr %5, i32 0, i32 7
  %35 = load ptr, ptr %4, align 8
  %36 = getelementptr inbounds %"class.testing::internal::ValueArray10", ptr %35, i32 0, i32 7
  %37 = load i32, ptr %36, align 4
  store i32 %37, ptr %34, align 4
  %38 = getelementptr inbounds %"class.testing::internal::ValueArray10", ptr %5, i32 0, i32 8
  %39 = load ptr, ptr %4, align 8
  %40 = getelementptr inbounds %"class.testing::internal::ValueArray10", ptr %39, i32 0, i32 8
  %41 = load i32, ptr %40, align 4
  store i32 %41, ptr %38, align 4
  %42 = getelementptr inbounds %"class.testing::internal::ValueArray10", ptr %5, i32 0, i32 9
  %43 = load ptr, ptr %4, align 8
  %44 = getelementptr inbounds %"class.testing::internal::ValueArray10", ptr %43, i32 0, i32 9
  %45 = load i32, ptr %44, align 4
  store i32 %45, ptr %42, align 4
  ret void
}

; Function Attrs: mustprogress nounwind uwtable
define linkonce_odr hidden void @_ZN7testing8internal11ValueArray3IN2cv11RotateFlagsES3_S3_EC2ERKS4_(ptr noundef nonnull align 4 dereferenceable(12) %0, ptr noundef nonnull align 4 dereferenceable(12) %1) unnamed_addr #4 comdat align 2 {
  %3 = alloca ptr, align 8
  %4 = alloca ptr, align 8
  store ptr %0, ptr %3, align 8
  store ptr %1, ptr %4, align 8
  %5 = load ptr, ptr %3, align 8
  %6 = getelementptr inbounds %"class.testing::internal::ValueArray3.259", ptr %5, i32 0, i32 0
  %7 = load ptr, ptr %4, align 8
  %8 = getelementptr inbounds %"class.testing::internal::ValueArray3.259", ptr %7, i32 0, i32 0
  %9 = load i32, ptr %8, align 4
  store i32 %9, ptr %6, align 4
  %10 = getelementptr inbounds %"class.testing::internal::ValueArray3.259", ptr %5, i32 0, i32 1
  %11 = load ptr, ptr %4, align 8
  %12 = getelementptr inbounds %"class.testing::internal::ValueArray3.259", ptr %11, i32 0, i32 1
  %13 = load i32, ptr %12, align 4
  store i32 %13, ptr %10, align 4
  %14 = getelementptr inbounds %"class.testing::internal::ValueArray3.259", ptr %5, i32 0, i32 2
  %15 = load ptr, ptr %4, align 8
  %16 = getelementptr inbounds %"class.testing::internal::ValueArray3.259", ptr %15, i32 0, i32 2
  %17 = load i32, ptr %16, align 4
  store i32 %17, ptr %14, align 4
  ret void
}

; Function Attrs: mustprogress nounwind uwtable
define linkonce_odr hidden void @_ZN7testing8internal11ValueArray3IN2cv5Size_IiEES4_S4_EC2ERKS5_(ptr noundef nonnull align 4 dereferenceable(24) %0, ptr noundef nonnull align 4 dereferenceable(24) %1) unnamed_addr #4 comdat align 2 {
  %3 = alloca ptr, align 8
  %4 = alloca ptr, align 8
  store ptr %0, ptr %3, align 8
  store ptr %1, ptr %4, align 8
  %5 = load ptr, ptr %3, align 8
  %6 = getelementptr inbounds %"class.testing::internal::ValueArray3.189", ptr %5, i32 0, i32 0
  %7 = load ptr, ptr %4, align 8
  %8 = getelementptr inbounds %"class.testing::internal::ValueArray3.189", ptr %7, i32 0, i32 0
  call void @llvm.memcpy.p0.p0.i64(ptr align 4 %6, ptr align 4 %8, i64 8, i1 false)
  %9 = getelementptr inbounds %"class.testing::internal::ValueArray3.189", ptr %5, i32 0, i32 1
  %10 = load ptr, ptr %4, align 8
  %11 = getelementptr inbounds %"class.testing::internal::ValueArray3.189", ptr %10, i32 0, i32 1
  call void @llvm.memcpy.p0.p0.i64(ptr align 4 %9, ptr align 4 %11, i64 8, i1 false)
  %12 = getelementptr inbounds %"class.testing::internal::ValueArray3.189", ptr %5, i32 0, i32 2
  %13 = load ptr, ptr %4, align 8
  %14 = getelementptr inbounds %"class.testing::internal::ValueArray3.189", ptr %13, i32 0, i32 2
  call void @llvm.memcpy.p0.p0.i64(ptr align 4 %12, ptr align 4 %14, i64 8, i1 false)
  ret void
}

; Function Attrs: mustprogress uwtable
define linkonce_odr hidden void @_ZN7testing8internal23CartesianProductHolder3INS0_11ValueArray3IN2cv5Size_IiEES5_S5_EENS2_INS3_11RotateFlagsES7_S7_EENS0_12ValueArray10IiiiiiiiiiiEEEC2ERKS6_RKS8_RKSA_(ptr noundef nonnull align 4 dereferenceable(76) %0, ptr noundef nonnull align 4 dereferenceable(24) %1, ptr noundef nonnull align 4 dereferenceable(12) %2, ptr noundef nonnull align 4 dereferenceable(40) %3) unnamed_addr #5 comdat align 2 {
  %5 = alloca ptr, align 8
  %6 = alloca ptr, align 8
  %7 = alloca ptr, align 8
  %8 = alloca ptr, align 8
  store ptr %0, ptr %5, align 8
  store ptr %1, ptr %6, align 8
  store ptr %2, ptr %7, align 8
  store ptr %3, ptr %8, align 8
  %9 = load ptr, ptr %5, align 8
  %10 = getelementptr inbounds %"class.testing::internal::CartesianProductHolder3.258", ptr %9, i32 0, i32 0
  %11 = load ptr, ptr %6, align 8
  call void @_ZN7testing8internal11ValueArray3IN2cv5Size_IiEES4_S4_EC2ERKS5_(ptr noundef nonnull align 4 dereferenceable(24) %10, ptr noundef nonnull align 4 dereferenceable(24) %11)
  %12 = getelementptr inbounds %"class.testing::internal::CartesianProductHolder3.258", ptr %9, i32 0, i32 1
  %13 = load ptr, ptr %7, align 8
  call void @_ZN7testing8internal11ValueArray3IN2cv11RotateFlagsES3_S3_EC2ERKS4_(ptr noundef nonnull align 4 dereferenceable(12) %12, ptr noundef nonnull align 4 dereferenceable(12) %13)
  %14 = getelementptr inbounds %"class.testing::internal::CartesianProductHolder3.258", ptr %9, i32 0, i32 2
  %15 = load ptr, ptr %8, align 8
  call void @_ZN7testing8internal12ValueArray10IiiiiiiiiiiEC2ERKS2_(ptr noundef nonnull align 4 dereferenceable(40) %14, ptr noundef nonnull align 4 dereferenceable(40) %15)
  ret void
}

; Function Attrs: mustprogress nounwind uwtable
define linkonce_odr hidden void @_ZN7testing8internal12ValueArray10IiiiiiiiiiiEC2Eiiiiiiiiii(ptr noundef nonnull align 4 dereferenceable(40) %0, i32 noundef %1, i32 noundef %2, i32 noundef %3, i32 noundef %4, i32 noundef %5, i32 noundef %6, i32 noundef %7, i32 noundef %8, i32 noundef %9, i32 noundef %10) unnamed_addr #4 comdat align 2 {
  %12 = alloca ptr, align 8
  %13 = alloca i32, align 4
  %14 = alloca i32, align 4
  %15 = alloca i32, align 4
  %16 = alloca i32, align 4
  %17 = alloca i32, align 4
  %18 = alloca i32, align 4
  %19 = alloca i32, align 4
  %20 = alloca i32, align 4
  %21 = alloca i32, align 4
  %22 = alloca i32, align 4
  store ptr %0, ptr %12, align 8
  store i32 %1, ptr %13, align 4
  store i32 %2, ptr %14, align 4
  store i32 %3, ptr %15, align 4
  store i32 %4, ptr %16, align 4
  store i32 %5, ptr %17, align 4
  store i32 %6, ptr %18, align 4
  store i32 %7, ptr %19, align 4
  store i32 %8, ptr %20, align 4
  store i32 %9, ptr %21, align 4
  store i32 %10, ptr %22, align 4
  %23 = load ptr, ptr %12, align 8
  %24 = getelementptr inbounds %"class.testing::internal::ValueArray10", ptr %23, i32 0, i32 0
  %25 = load i32, ptr %13, align 4
  store i32 %25, ptr %24, align 4
  %26 = getelementptr inbounds %"class.testing::internal::ValueArray10", ptr %23, i32 0, i32 1
  %27 = load i32, ptr %14, align 4
  store i32 %27, ptr %26, align 4
  %28 = getelementptr inbounds %"class.testing::internal::ValueArray10", ptr %23, i32 0, i32 2
  %29 = load i32, ptr %15, align 4
  store i32 %29, ptr %28, align 4
  %30 = getelementptr inbounds %"class.testing::internal::ValueArray10", ptr %23, i32 0, i32 3
  %31 = load i32, ptr %16, align 4
  store i32 %31, ptr %30, align 4
  %32 = getelementptr inbounds %"class.testing::internal::ValueArray10", ptr %23, i32 0, i32 4
  %33 = load i32, ptr %17, align 4
  store i32 %33, ptr %32, align 4
  %34 = getelementptr inbounds %"class.testing::internal::ValueArray10", ptr %23, i32 0, i32 5
  %35 = load i32, ptr %18, align 4
  store i32 %35, ptr %34, align 4
  %36 = getelementptr inbounds %"class.testing::internal::ValueArray10", ptr %23, i32 0, i32 6
  %37 = load i32, ptr %19, align 4
  store i32 %37, ptr %36, align 4
  %38 = getelementptr inbounds %"class.testing::internal::ValueArray10", ptr %23, i32 0, i32 7
  %39 = load i32, ptr %20, align 4
  store i32 %39, ptr %38, align 4
  %40 = getelementptr inbounds %"class.testing::internal::ValueArray10", ptr %23, i32 0, i32 8
  %41 = load i32, ptr %21, align 4
  store i32 %41, ptr %40, align 4
  %42 = getelementptr inbounds %"class.testing::internal::ValueArray10", ptr %23, i32 0, i32 9
  %43 = load i32, ptr %22, align 4
  store i32 %43, ptr %42, align 4
  ret void
}

; Function Attrs: mustprogress nounwind uwtable
define linkonce_odr hidden void @_ZN7testing8internal11ValueArray3IN2cv11RotateFlagsES3_S3_EC2ES3_S3_S3_(ptr noundef nonnull align 4 dereferenceable(12) %0, i32 noundef %1, i32 noundef %2, i32 noundef %3) unnamed_addr #4 comdat align 2 {
  %5 = alloca ptr, align 8
  %6 = alloca i32, align 4
  %7 = alloca i32, align 4
  %8 = alloca i32, align 4
  store ptr %0, ptr %5, align 8
  store i32 %1, ptr %6, align 4
  store i32 %2, ptr %7, align 4
  store i32 %3, ptr %8, align 4
  %9 = load ptr, ptr %5, align 8
  %10 = getelementptr inbounds %"class.testing::internal::ValueArray3.259", ptr %9, i32 0, i32 0
  %11 = load i32, ptr %6, align 4
  store i32 %11, ptr %10, align 4
  %12 = getelementptr inbounds %"class.testing::internal::ValueArray3.259", ptr %9, i32 0, i32 1
  %13 = load i32, ptr %7, align 4
  store i32 %13, ptr %12, align 4
  %14 = getelementptr inbounds %"class.testing::internal::ValueArray3.259", ptr %9, i32 0, i32 2
  %15 = load i32, ptr %8, align 4
  store i32 %15, ptr %14, align 4
  ret void
}

; Function Attrs: mustprogress nounwind uwtable
define linkonce_odr hidden void @_ZN7testing8internal11ValueArray3IN2cv5Size_IiEES4_S4_EC2ES4_S4_S4_(ptr noundef nonnull align 4 dereferenceable(24) %0, i64 %1, i64 %2, i64 %3) unnamed_addr #4 comdat align 2 {
  %5 = alloca %"class.cv::Size_", align 4
  %6 = alloca %"class.cv::Size_", align 4
  %7 = alloca %"class.cv::Size_", align 4
  %8 = alloca ptr, align 8
  store i64 %1, ptr %5, align 4
  store i64 %2, ptr %6, align 4
  store i64 %3, ptr %7, align 4
  store ptr %0, ptr %8, align 8
  %9 = load ptr, ptr %8, align 8
  %10 = getelementptr inbounds %"class.testing::internal::ValueArray3.189", ptr %9, i32 0, i32 0
  call void @llvm.memcpy.p0.p0.i64(ptr align 4 %10, ptr align 4 %5, i64 8, i1 false)
  %11 = getelementptr inbounds %"class.testing::internal::ValueArray3.189", ptr %9, i32 0, i32 1
  call void @llvm.memcpy.p0.p0.i64(ptr align 4 %11, ptr align 4 %6, i64 8, i1 false)
  %12 = getelementptr inbounds %"class.testing::internal::ValueArray3.189", ptr %9, i32 0, i32 2
  call void @llvm.memcpy.p0.p0.i64(ptr align 4 %12, ptr align 4 %7, i64 8, i1 false)
  ret void
}

; Function Attrs: mustprogress uwtable
define linkonce_odr hidden void @_ZN7testing7CombineINS_8internal11ValueArray3IN2cv5Size_IiEES5_S5_EENS2_INS3_11RotateFlagsES7_S7_EENS1_12ValueArray10IiiiiiiiiiiEEEENS1_23CartesianProductHolder3IT_T0_T1_EERKSC_RKSD_RKSE_(ptr dead_on_unwind noalias writable sret(%"class.testing::internal::CartesianProductHolder3.258") align 4 %0, ptr noundef nonnull align 4 dereferenceable(24) %1, ptr noundef nonnull align 4 dereferenceable(12) %2, ptr noundef nonnull align 4 dereferenceable(40) %3) #5 comdat {
  %5 = alloca ptr, align 8
  %6 = alloca ptr, align 8
  %7 = alloca ptr, align 8
  %8 = alloca ptr, align 8
  store ptr %0, ptr %5, align 8
  store ptr %1, ptr %6, align 8
  store ptr %2, ptr %7, align 8
  store ptr %3, ptr %8, align 8
  %9 = load ptr, ptr %6, align 8
  %10 = load ptr, ptr %7, align 8
  %11 = load ptr, ptr %8, align 8
  call void @_ZN7testing8internal23CartesianProductHolder3INS0_11ValueArray3IN2cv5Size_IiEES5_S5_EENS2_INS3_11RotateFlagsES7_S7_EENS0_12ValueArray10IiiiiiiiiiiEEEC2ERKS6_RKS8_RKSA_(ptr noundef nonnull align 4 dereferenceable(76) %0, ptr noundef nonnull align 4 dereferenceable(24) %9, ptr noundef nonnull align 4 dereferenceable(12) %10, ptr noundef nonnull align 4 dereferenceable(40) %11)
  ret void
}

; Function Attrs: mustprogress uwtable
define linkonce_odr hidden void @_ZN7testing6ValuesIiiiiiiiiiiEENS_8internal12ValueArray10IT_T0_T1_T2_T3_T4_T5_T6_T7_T8_EES3_S4_S5_S6_S7_S8_S9_SA_SB_SC_(ptr dead_on_unwind noalias writable sret(%"class.testing::internal::ValueArray10") align 4 %0, i32 noundef %1, i32 noundef %2, i32 noundef %3, i32 noundef %4, i32 noundef %5, i32 noundef %6, i32 noundef %7, i32 noundef %8, i32 noundef %9, i32 noundef %10) #5 comdat {
  %12 = alloca ptr, align 8
  %13 = alloca i32, align 4
  %14 = alloca i32, align 4
  %15 = alloca i32, align 4
  %16 = alloca i32, align 4
  %17 = alloca i32, align 4
  %18 = alloca i32, align 4
  %19 = alloca i32, align 4
  %20 = alloca i32, align 4
  %21 = alloca i32, align 4
  %22 = alloca i32, align 4
  store ptr %0, ptr %12, align 8
  store i32 %1, ptr %13, align 4
  store i32 %2, ptr %14, align 4
  store i32 %3, ptr %15, align 4
  store i32 %4, ptr %16, align 4
  store i32 %5, ptr %17, align 4
  store i32 %6, ptr %18, align 4
  store i32 %7, ptr %19, align 4
  store i32 %8, ptr %20, align 4
  store i32 %9, ptr %21, align 4
  store i32 %10, ptr %22, align 4
  %23 = load i32, ptr %13, align 4
  %24 = load i32, ptr %14, align 4
  %25 = load i32, ptr %15, align 4
  %26 = load i32, ptr %16, align 4
  %27 = load i32, ptr %17, align 4
  %28 = load i32, ptr %18, align 4
  %29 = load i32, ptr %19, align 4
  %30 = load i32, ptr %20, align 4
  %31 = load i32, ptr %21, align 4
  %32 = load i32, ptr %22, align 4
  call void @_ZN7testing8internal12ValueArray10IiiiiiiiiiiEC2Eiiiiiiiiii(ptr noundef nonnull align 4 dereferenceable(40) %0, i32 noundef %23, i32 noundef %24, i32 noundef %25, i32 noundef %26, i32 noundef %27, i32 noundef %28, i32 noundef %29, i32 noundef %30, i32 noundef %31, i32 noundef %32)
  ret void
}

; Function Attrs: mustprogress uwtable
define linkonce_odr hidden void @_ZN7testing6ValuesIN2cv11RotateFlagsES2_S2_EENS_8internal11ValueArray3IT_T0_T1_EES5_S6_S7_(ptr dead_on_unwind noalias writable sret(%"class.testing::internal::ValueArray3.259") align 4 %0, i32 noundef %1, i32 noundef %2, i32 noundef %3) #5 comdat {
  %5 = alloca ptr, align 8
  %6 = alloca i32, align 4
  %7 = alloca i32, align 4
  %8 = alloca i32, align 4
  store ptr %0, ptr %5, align 8
  store i32 %1, ptr %6, align 4
  store i32 %2, ptr %7, align 4
  store i32 %3, ptr %8, align 4
  %9 = load i32, ptr %6, align 4
  %10 = load i32, ptr %7, align 4
  %11 = load i32, ptr %8, align 4
  call void @_ZN7testing8internal11ValueArray3IN2cv11RotateFlagsES3_S3_EC2ES3_S3_S3_(ptr noundef nonnull align 4 dereferenceable(12) %0, i32 noundef %9, i32 noundef %10, i32 noundef %11)
  ret void
}

; Function Attrs: mustprogress uwtable
define linkonce_odr hidden void @_ZN7testing6ValuesIN2cv5Size_IiEES3_S3_EENS_8internal11ValueArray3IT_T0_T1_EES6_S7_S8_(ptr dead_on_unwind noalias writable sret(%"class.testing::internal::ValueArray3.189") align 4 %0, i64 %1, i64 %2, i64 %3) #5 comdat {
  %5 = alloca ptr, align 8
  %6 = alloca %"class.cv::Size_", align 4
  %7 = alloca %"class.cv::Size_", align 4
  %8 = alloca %"class.cv::Size_", align 4
  %9 = alloca %"class.cv::Size_", align 4
  %10 = alloca %"class.cv::Size_", align 4
  %11 = alloca %"class.cv::Size_", align 4
  store ptr %0, ptr %5, align 8
  store i64 %1, ptr %6, align 4
  store i64 %2, ptr %7, align 4
  store i64 %3, ptr %8, align 4
  call void @llvm.memcpy.p0.p0.i64(ptr align 4 %9, ptr align 4 %6, i64 8, i1 false)
  call void @llvm.memcpy.p0.p0.i64(ptr align 4 %10, ptr align 4 %7, i64 8, i1 false)
  call void @llvm.memcpy.p0.p0.i64(ptr align 4 %11, ptr align 4 %8, i64 8, i1 false)
  %12 = load i64, ptr %9, align 4
  %13 = load i64, ptr %10, align 4
  %14 = load i64, ptr %11, align 4
  call void @_ZN7testing8internal11ValueArray3IN2cv5Size_IiEES4_S4_EC2ES4_S4_S4_(ptr noundef nonnull align 4 dereferenceable(24) %0, i64 %12, i64 %13, i64 %14)
  ret void
}

; Function Attrs: mustprogress uwtable
define internal void @_ZN11opencv_testL31gtest_RotateTest_EvalGenerator_Ev(ptr dead_on_unwind noalias writable sret(%"class.testing::internal::ParamGenerator.92") align 8 %0) #5 {
  %2 = alloca ptr, align 8
  %3 = alloca %"class.testing::internal::CartesianProductHolder3.258", align 4
  %4 = alloca %"class.testing::internal::ValueArray3.189", align 4
  %5 = alloca %"class.cv::Size_", align 4
  %6 = alloca %"class.cv::Size_", align 4
  %7 = alloca %"class.cv::Size_", align 4
  %8 = alloca %"class.testing::internal::ValueArray3.259", align 4
  %9 = alloca %"class.testing::internal::ValueArray10", align 4
  store ptr %0, ptr %2, align 8
  call void @llvm.memcpy.p0.p0.i64(ptr align 4 %5, ptr align 4 @_ZN4perfL5szVGAE, i64 8, i1 false)
  call void @llvm.memcpy.p0.p0.i64(ptr align 4 %6, ptr align 4 @_ZN4perfL6sz720pE, i64 8, i1 false)
  call void @llvm.memcpy.p0.p0.i64(ptr align 4 %7, ptr align 4 @_ZN4perfL7sz1080pE, i64 8, i1 false)
  %10 = load i64, ptr %5, align 4
  %11 = load i64, ptr %6, align 4
  %12 = load i64, ptr %7, align 4
  call void @_ZN7testing6ValuesIN2cv5Size_IiEES3_S3_EENS_8internal11ValueArray3IT_T0_T1_EES6_S7_S8_(ptr dead_on_unwind writable sret(%"class.testing::internal::ValueArray3.189") align 4 %4, i64 %10, i64 %11, i64 %12)
  call void @_ZN7testing6ValuesIN2cv11RotateFlagsES2_S2_EENS_8internal11ValueArray3IT_T0_T1_EES5_S6_S7_(ptr dead_on_unwind writable sret(%"class.testing::internal::ValueArray3.259") align 4 %8, i32 noundef 1, i32 noundef 0, i32 noundef 2)
  call void @_ZN7testing6ValuesIiiiiiiiiiiEENS_8internal12ValueArray10IT_T0_T1_T2_T3_T4_T5_T6_T7_T8_EES3_S4_S5_S6_S7_S8_S9_SA_SB_SC_(ptr dead_on_unwind writable sret(%"class.testing::internal::ValueArray10") align 4 %9, i32 noundef 0, i32 noundef 16, i32 noundef 24, i32 noundef 1, i32 noundef 3, i32 noundef 11, i32 noundef 19, i32 noundef 27, i32 noundef 4, i32 noundef 5)
  call void @_ZN7testing7CombineINS_8internal11ValueArray3IN2cv5Size_IiEES5_S5_EENS2_INS3_11RotateFlagsES7_S7_EENS1_12ValueArray10IiiiiiiiiiiEEEENS1_23CartesianProductHolder3IT_T0_T1_EERKSC_RKSD_RKSE_(ptr dead_on_unwind writable sret(%"class.testing::internal::CartesianProductHolder3.258") align 4 %3, ptr noundef nonnull align 4 dereferenceable(24) %4, ptr noundef nonnull align 4 dereferenceable(12) %8, ptr noundef nonnull align 4 dereferenceable(40) %9)
  call void @_ZNK7testing8internal23CartesianProductHolder3INS0_11ValueArray3IN2cv5Size_IiEES5_S5_EENS2_INS3_11RotateFlagsES7_S7_EENS0_12ValueArray10IiiiiiiiiiiEEEcvNS0_14ParamGeneratorISt5tupleIJT_T0_T1_EEEEIS5_iN4perf7MatTypeEEEv(ptr dead_on_unwind writable sret(%"class.testing::internal::ParamGenerator.92") align 8 %0, ptr noundef nonnull align 4 dereferenceable(76) %3)
  ret void
}