; Function Attrs: mustprogress uwtable
define internal void @_ZN11opencv_testL31gtest_RotateTest_EvalGenerator_Ev(ptr dead_on_unwind noalias writable sret(%"class.testing::internal::ParamGenerator.92") align 8 %0) #3 {
  %2 = alloca %"class.testing::internal::CartesianProductHolder3.258", align 8
  %.sroa.02.0.copyload = load i64, ptr @_ZN4perfL5szVGAE, align 8
  %.sroa.01.0.copyload = load i64, ptr @_ZN4perfL6sz720pE, align 8
  %.sroa.0.0.copyload = load i64, ptr @_ZN4perfL7sz1080pE, align 8
  store i64 %.sroa.02.0.copyload, ptr %2, align 8, !alias.scope !57
  %3 = getelementptr inbounds i8, ptr %2, i64 8
  store i64 %.sroa.01.0.copyload, ptr %3, align 8, !alias.scope !57
  %4 = getelementptr inbounds i8, ptr %2, i64 16
  store i64 %.sroa.0.0.copyload, ptr %4, align 8, !alias.scope !57
  %5 = getelementptr inbounds i8, ptr %2, i64 24
  store <4 x i32> <i32 1, i32 0, i32 2, i32 0>, ptr %5, align 8, !alias.scope !57
  %6 = getelementptr inbounds i8, ptr %2, i64 40
  store <4 x i32> <i32 16, i32 24, i32 1, i32 3>, ptr %6, align 8, !alias.scope !57
  %7 = getelementptr inbounds i8, ptr %2, i64 56
  store <4 x i32> <i32 11, i32 19, i32 27, i32 4>, ptr %7, align 8, !alias.scope !57
  %8 = getelementptr inbounds i8, ptr %2, i64 72
  store i32 5, ptr %8, align 8, !alias.scope !57
  call void @_ZNK7testing8internal23CartesianProductHolder3INS0_11ValueArray3IN2cv5Size_IiEES5_S5_EENS2_INS3_11RotateFlagsES7_S7_EENS0_12ValueArray10IiiiiiiiiiiEEEcvNS0_14ParamGeneratorISt5tupleIJT_T0_T1_EEEEIS5_iN4perf7MatTypeEEEv(ptr dead_on_unwind writable sret(%"class.testing::internal::ParamGenerator.92") align 8 %0, ptr noundef nonnull align 4 dereferenceable(76) %2)
  ret void
}